target datalayout = "e-m:e-p270:32:32-p271:32:32-p272:64:64-i64:64-i128:128-f80:128-n8:16:32:64-S128"
target triple = "x86_64-pc-linux-gnu"

%struct.Ssc_Pars_t_ = type { i32, i32, i32, i32, i32, i32, i32 }

; Function Attrs: nounwind uwtable
define ptr @Ssc_PerformSweeping(ptr noundef %0, ptr noundef %1, ptr noundef %2) #0 {
  %4 = alloca ptr, align 8
  %5 = alloca ptr, align 8
  %6 = alloca ptr, align 8
  %7 = alloca ptr, align 8
  store ptr %0, ptr %4, align 8, !tbaa !29
  store ptr %1, ptr %5, align 8, !tbaa !29
  store ptr %2, ptr %6, align 8, !tbaa !3
  call void @llvm.lifetime.start.p0(i64 8, ptr %7) #13
  %8 = load ptr, ptr %4, align 8, !tbaa !29
  %9 = load ptr, ptr %5, align 8, !tbaa !29
  %10 = load ptr, ptr %6, align 8, !tbaa !3
  %11 = call ptr @Ssc_PerformSweepingInt(ptr noundef %8, ptr noundef %9, ptr noundef %10)
  store ptr %11, ptr %7, align 8, !tbaa !29
  %12 = load ptr, ptr %6, align 8, !tbaa !3
  %13 = getelementptr inbounds nuw %struct.Ssc_Pars_t_, ptr %12, i32 0, i32 6
  %14 = load i32, ptr %13, align 4, !tbaa !117
  %15 = icmp ne i32 %14, 0
  br i1 %15, label %16, label %21

16:                                               ; preds = %3
  %17 = load ptr, ptr %4, align 8, !tbaa !29
  %18 = load ptr, ptr %7, align 8, !tbaa !29
  %19 = load ptr, ptr %5, align 8, !tbaa !29
  %20 = call i32 @Ssc_PerformVerification(ptr noundef %17, ptr noundef %18, ptr noundef %19)
  br label %21

21:                                               ; preds = %16, %3
  %22 = load ptr, ptr %7, align 8, !tbaa !29
  call void @llvm.lifetime.end.p0(i64 8, ptr %7) #13
  ret ptr %22
}