; Function Attrs: nounwind uwtable
define ptr @Ssc_PerformSweeping(ptr noundef %0, ptr noundef %1, ptr noundef %2) local_unnamed_addr #2 {
  %4 = tail call ptr @Ssc_PerformSweepingInt(ptr noundef %0, ptr noundef %1, ptr noundef %2)
  %5 = getelementptr inbounds nuw i8, ptr %2, i64 24
  %6 = load i32, ptr %5, align 4, !tbaa !114
  %.not = icmp eq i32 %6, 0
  br i1 %.not, label %9, label %7

7:                                                ; preds = %3
  %8 = tail call i32 @Ssc_PerformVerification(ptr noundef %0, ptr noundef %4, ptr noundef %1)
  br label %9

9:                                                ; preds = %7, %3
  ret ptr %4
}